target datalayout = "e-m:e-p270:32:32-p271:32:32-p272:64:64-i64:64-i128:128-f80:128-n8:16:32:64-S128"
target triple = "x86_64-unknown-linux-gnu"

; Function Attrs: mustprogress nounwind uwtable
define noundef zeroext i1 @_ZN8proxygen2hq10isGreaseIdEm(i64 noundef %id) #5 {
entry:
  %retval = alloca i1, align 1
  %id.addr = alloca i64, align 8
  store i64 %id, ptr %id.addr, align 8
  %0 = load i64, ptr %id.addr, align 8
  %cmp = icmp ult i64 %0, 33
  br i1 %cmp, label %if.then, label %lor.lhs.false

lor.lhs.false:                                    ; preds = %entry
  %1 = load i64, ptr %id.addr, align 8
  %cmp1 = icmp ugt i64 %1, 4611686018427387903
  br i1 %cmp1, label %if.then, label %if.end

if.then:                                          ; preds = %lor.lhs.false, %entry
  store i1 false, ptr %retval, align 1
  br label %return

if.end:                                           ; preds = %lor.lhs.false
  %2 = load i64, ptr %id.addr, align 8
  %sub = sub i64 %2, 33
  %rem = urem i64 %sub, 31
  %cmp2 = icmp eq i64 %rem, 0
  store i1 %cmp2, ptr %retval, align 1
  br label %return

return:                                           ; preds = %if.end, %if.then
  %3 = load i1, ptr %retval, align 1
  ret i1 %3
}