; Function Attrs: mustprogress nofree norecurse nosync nounwind willreturn memory(none) uwtable
define noundef zeroext i1 @_ZN8proxygen2hq10isGreaseIdEm(i64 noundef %id) local_unnamed_addr #3 {
entry:
  %0 = add i64 %id, -4611686018427387904
  %or.cond = icmp ult i64 %0, -4611686018427387871
  br i1 %or.cond, label %return, label %if.end

if.end:                                           ; preds = %entry
  %sub = add nsw i64 %id, -33
  %rem = urem i64 %sub, 31
  %cmp2 = icmp eq i64 %rem, 0
  br label %return

return:                                           ; preds = %entry, %if.end
  %retval.0 = phi i1 [ %cmp2, %if.end ], [ false, %entry ]
  ret i1 %retval.0
}